Certificate:
    Data:
        Version: 3 (0x2)
        Serial Number: 1 (0x1)
        Signature Algorithm: sha1WithRSAEncryption
        Issuer: C=PT, ST=CONTINENTAL, L=Lisboa, O=XPTO, CN=XPTO CA/emailAddress=xpto@myhost.mydomain
        Validity
            Not Before: May 21 12:50:35 2015 GMT
            Not After : May 18 12:50:35 2025 GMT
        Subject: C=PT, ST=CONTINENTAL, L=Lisboa, O=XPTO, CN=server/emailAddress=xpto@myhost.mydomain
        Subject Public Key Info:
            Public Key Algorithm: rsaEncryption
            RSA Public Key: (1024 bit)
                Modulus (1024 bit):
                    00:ee:4e:71:0d:1e:9c:c2:54:60:17:26:26:5d:a2:
                    d0:2f:ee:62:f9:a5:26:25:c8:c0:57:6e:77:54:68:
                    39:63:5e:43:7d:8c:f8:35:49:a7:be:0d:ff:b4:43:
                    9b:ac:ac:c7:92:de:b2:42:02:fb:7b:1d:49:b9:53:
                    d5:f1:5e:62:ba:30:56:2c:30:52:95:68:9b:1f:7a:
                    53:17:9c:06:de:97:c1:db:69:dd:15:42:e8:39:02:
                    f4:c4:ae:f3:cd:7b:31:53:dd:e9:82:ac:d2:f3:40:
                    73:fe:02:ff:2d:96:4a:19:92:b5:99:bb:9e:89:a0:
                    e9:b5:c8:13:ab:cd:1e:fa:65
                Exponent: 65537 (0x10001)
        X509v3 extensions:
            X509v3 Basic Constraints: 
                CA:FALSE
            Netscape Cert Type: 
                SSL Server
            Netscape Comment: 
                Easy-RSA Generated Server Certificate
            X509v3 Subject Key Identifier: 
                CC:1C:87:B3:3C:38:4F:25:77:45:D4:AC:E4:FA:A8:0C:1F:8F:CA:B2
            X509v3 Authority Key Identifier: 
                keyid:DD:19:BF:6F:72:32:FB:83:09:08:8D:A1:8C:65:AA:36:7A:FC:6C:A4
                DirName:/C=PT/ST=CONTINENTAL/L=Lisboa/O=XPTO/CN=XPTO CA/emailAddress=xpto@myhost.mydomain
                serial:F5:4A:6A:C9:64:A3:1E:35

            X509v3 Extended Key Usage: 
                TLS Web Server Authentication
            X509v3 Key Usage: 
                Digital Signature, Key Encipherment
    Signature Algorithm: sha1WithRSAEncryption
        55:a9:b5:28:ce:e4:ac:e3:43:19:e5:01:6f:81:62:60:8f:14:
        b6:54:aa:79:92:37:27:3b:ea:cb:8c:08:6b:08:8a:d8:42:93:
        ed:6f:fe:e3:e6:4c:2a:5e:f7:85:61:d4:f5:15:e1:0f:35:e4:
        97:21:48:ff:4b:fa:f9:af:16:19:77:b1:98:d1:81:63:d7:28:
        b6:ee:84:96:4e:8f:fe:f6:f8:b1:55:77:24:ef:ca:ec:71:76:
        99:4d:e8:c8:b3:81:6c:f1:16:76:ca:86:f0:12:08:df:f0:90:
        b6:49:40:5f:9b:a0:85:bc:f9:8f:15:ae:57:64:56:27:a5:64:
        57:e7
-----BEGIN CERTIFICATE-----
MIIDszCCAxygAwIBAgIBATANBgkqhkiG9w0BAQUFADB6MQswCQYDVQQGEwJQVDEU
MBIGA1UECBMLQ09OVElORU5UQUwxDzANBgNVBAcTBkxpc2JvYTENMAsGA1UEChME
WFBUTzEQMA4GA1UEAxMHWFBUTyBDQTEjMCEGCSqGSIb3DQEJARYUeHB0b0BteWhv
c3QubXlkb21haW4wHhcNMTUwNTIxMTI1MDM1WhcNMjUwNTE4MTI1MDM1WjB5MQsw
CQYDVQQGEwJQVDEUMBIGA1UECBMLQ09OVElORU5UQUwxDzANBgNVBAcTBkxpc2Jv
YTENMAsGA1UEChMEWFBUTzEPMA0GA1UEAxMGc2VydmVyMSMwIQYJKoZIhvcNAQkB
FhR4cHRvQG15aG9zdC5teWRvbWFpbjCBnzANBgkqhkiG9w0BAQEFAAOBjQAwgYkC
gYEA7k5xDR6cwlRgFyYmXaLQL+5i+aUmJcjAV253VGg5Y15DfYz4NUmnvg3/tEOb
rKzHkt6yQgL7ex1JuVPV8V5iujBWLDBSlWibH3pTF5wG3pfB22ndFULoOQL0xK7z
zXsxU93pgqzS80Bz/gL/LZZKGZK1mbueiaDptcgTq80e+mUCAwEAAaOCAUgwggFE
MAkGA1UdEwQCMAAwEQYJYIZIAYb4QgEBBAQDAgZAMDQGCWCGSAGG+EIBDQQnFiVF
YXN5LVJTQSBHZW5lcmF0ZWQgU2VydmVyIENlcnRpZmljYXRlMB0GA1UdDgQWBBTM
HIezPDhPJXdF1Kzk+qgMH4/KsjCBrAYDVR0jBIGkMIGhgBTdGb9vcjL7gwkIjaGM
Zao2evxspKF+pHwwejELMAkGA1UEBhMCUFQxFDASBgNVBAgTC0NPTlRJTkVOVEFM
MQ8wDQYDVQQHEwZMaXNib2ExDTALBgNVBAoTBFhQVE8xEDAOBgNVBAMTB1hQVE8g
Q0ExIzAhBgkqhkiG9w0BCQEWFHhwdG9AbXlob3N0Lm15ZG9tYWluggkA9UpqyWSj
HjUwEwYDVR0lBAwwCgYIKwYBBQUHAwEwCwYDVR0PBAQDAgWgMA0GCSqGSIb3DQEB
BQUAA4GBAFWptSjO5KzjQxnlAW+BYmCPFLZUqnmSNyc76suMCGsIithCk+1v/uPm
TCpe94Vh1PUV4Q815JchSP9L+vmvFhl3sZjRgWPXKLbuhJZOj/72+LFVdyTvyuxx
dplN6MizgWzxFnbKhvASCN/wkLZJQF+boIW8+Y8VrldkVielZFfn
-----END CERTIFICATE-----
