Certificate:
    Data:
        Version: 3 (0x2)
        Serial Number: 2 (0x2)
        Signature Algorithm: sha1WithRSAEncryption
        Issuer: C=PT, ST=CONTINENTAL, L=Lisboa, O=XPTO, CN=XPTO CA/emailAddress=xpto@myhost.mydomain
        Validity
            Not Before: May 21 12:51:12 2015 GMT
            Not After : May 18 12:51:12 2025 GMT
        Subject: C=PT, ST=CONTINENTAL, L=Lisboa, O=XPTO, CN=client1/emailAddress=xpto@myhost.mydomain
        Subject Public Key Info:
            Public Key Algorithm: rsaEncryption
            RSA Public Key: (1024 bit)
                Modulus (1024 bit):
                    00:de:9a:aa:db:b7:e5:5d:95:ad:cf:50:1d:75:d6:
                    39:bf:8c:73:72:28:7d:4a:b1:33:0a:ac:ed:1b:07:
                    95:b2:2e:e4:93:dc:d5:dc:57:0a:39:d5:36:ee:59:
                    32:61:1b:6d:64:eb:89:9a:c5:9f:8e:f7:cd:37:21:
                    00:09:e0:fc:ad:7e:8d:1f:2f:74:cb:d4:e8:a0:93:
                    bc:d6:7f:1f:12:89:e3:e2:ca:55:79:f7:0a:19:9e:
                    8e:28:67:5e:cd:e9:49:2a:02:a9:ea:d4:af:48:f9:
                    c3:8d:72:fb:c3:4c:45:f7:24:a9:d2:04:cb:73:f8:
                    b3:31:b6:25:a2:b8:d0:c7:75
                Exponent: 65537 (0x10001)
        X509v3 extensions:
            X509v3 Basic Constraints: 
                CA:FALSE
            Netscape Comment: 
                Easy-RSA Generated Certificate
            X509v3 Subject Key Identifier: 
                87:67:01:4C:EE:79:1D:64:F0:77:B9:32:87:91:A5:FA:E3:3E:AC:99
            X509v3 Authority Key Identifier: 
                keyid:DD:19:BF:6F:72:32:FB:83:09:08:8D:A1:8C:65:AA:36:7A:FC:6C:A4
                DirName:/C=PT/ST=CONTINENTAL/L=Lisboa/O=XPTO/CN=XPTO CA/emailAddress=xpto@myhost.mydomain
                serial:F5:4A:6A:C9:64:A3:1E:35

            X509v3 Extended Key Usage: 
                TLS Web Client Authentication
            X509v3 Key Usage: 
                Digital Signature
    Signature Algorithm: sha1WithRSAEncryption
        4d:52:5c:07:54:61:4f:a7:9d:2b:4c:15:01:f5:f1:c4:ae:03:
        50:70:4e:42:21:14:da:15:96:59:3b:bb:54:0f:66:28:2c:13:
        dd:76:a3:76:5f:fe:2d:91:96:eb:9a:d5:82:fe:ad:91:87:db:
        d6:76:d4:e4:82:ed:2d:97:c6:8f:56:22:2c:2a:58:44:19:cc:
        6d:d3:23:a0:f9:20:fb:84:88:e8:c9:ee:c0:1e:8b:0f:d0:b8:
        52:b8:32:f4:2c:ca:c2:bd:f9:2f:f4:4d:4e:a9:86:b5:ab:7a:
        4f:a6:7e:57:b5:05:3a:e7:7a:3c:ab:5a:10:0f:33:2d:4a:fa:
        9e:1a
-----BEGIN CERTIFICATE-----
MIIDmjCCAwOgAwIBAgIBAjANBgkqhkiG9w0BAQUFADB6MQswCQYDVQQGEwJQVDEU
MBIGA1UECBMLQ09OVElORU5UQUwxDzANBgNVBAcTBkxpc2JvYTENMAsGA1UEChME
WFBUTzEQMA4GA1UEAxMHWFBUTyBDQTEjMCEGCSqGSIb3DQEJARYUeHB0b0BteWhv
c3QubXlkb21haW4wHhcNMTUwNTIxMTI1MTEyWhcNMjUwNTE4MTI1MTEyWjB6MQsw
CQYDVQQGEwJQVDEUMBIGA1UECBMLQ09OVElORU5UQUwxDzANBgNVBAcTBkxpc2Jv
YTENMAsGA1UEChMEWFBUTzEQMA4GA1UEAxMHY2xpZW50MTEjMCEGCSqGSIb3DQEJ
ARYUeHB0b0BteWhvc3QubXlkb21haW4wgZ8wDQYJKoZIhvcNAQEBBQADgY0AMIGJ
AoGBAN6aqtu35V2Vrc9QHXXWOb+Mc3IofUqxMwqs7RsHlbIu5JPc1dxXCjnVNu5Z
MmEbbWTriZrFn473zTchAAng/K1+jR8vdMvU6KCTvNZ/HxKJ4+LKVXn3Chmejihn
Xs3pSSoCqerUr0j5w41y+8NMRfckqdIEy3P4szG2JaK40Md1AgMBAAGjggEuMIIB
KjAJBgNVHRMEAjAAMC0GCWCGSAGG+EIBDQQgFh5FYXN5LVJTQSBHZW5lcmF0ZWQg
Q2VydGlmaWNhdGUwHQYDVR0OBBYEFIdnAUzueR1k8He5MoeRpfrjPqyZMIGsBgNV
HSMEgaQwgaGAFN0Zv29yMvuDCQiNoYxlqjZ6/GykoX6kfDB6MQswCQYDVQQGEwJQ
VDEUMBIGA1UECBMLQ09OVElORU5UQUwxDzANBgNVBAcTBkxpc2JvYTENMAsGA1UE
ChMEWFBUTzEQMA4GA1UEAxMHWFBUTyBDQTEjMCEGCSqGSIb3DQEJARYUeHB0b0Bt
eWhvc3QubXlkb21haW6CCQD1SmrJZKMeNTATBgNVHSUEDDAKBggrBgEFBQcDAjAL
BgNVHQ8EBAMCB4AwDQYJKoZIhvcNAQEFBQADgYEATVJcB1RhT6edK0wVAfXxxK4D
UHBOQiEU2hWWWTu7VA9mKCwT3Xajdl/+LZGW65rVgv6tkYfb1nbU5ILtLZfGj1Yi
LCpYRBnMbdMjoPkg+4SI6MnuwB6LD9C4Urgy9CzKwr35L/RNTqmGtat6T6Z+V7UF
Oud6PKtaEA8zLUr6nho=
-----END CERTIFICATE-----
